target datalayout = "e-m:e-p270:32:32-p271:32:32-p272:64:64-i64:64-i128:128-f80:128-n8:16:32:64-S128"
target triple = "x86_64-unknown-linux-gnu"

%"class.facebook::velox::common::Filter" = type { %"class.facebook::velox::ISerializable", i8, i8, i32 }
%"class.facebook::velox::ISerializable" = type { ptr }
%"class.facebook::velox::common::BigintRange" = type <{ %"class.facebook::velox::common::Filter", i64, i64, i32, i32, i16, i16, i8, [3 x i8] }>

@_ZTIN8facebook5velox6common6FilterE = constant { ptr, ptr, ptr } { ptr getelementptr inbounds (ptr, ptr @_ZTVN10__cxxabiv120__si_class_type_infoE, i64 2), ptr @_ZTSN8facebook5velox6common6FilterE, ptr @_ZTIN8facebook5velox13ISerializableE }, align 8
@_ZTIN8facebook5velox6common11BigintRangeE = constant { ptr, ptr, ptr } { ptr getelementptr inbounds (ptr, ptr @_ZTVN10__cxxabiv120__si_class_type_infoE, i64 2), ptr @_ZTSN8facebook5velox6common11BigintRangeE, ptr @_ZTIN8facebook5velox6common6FilterE }, align 8

; Function Attrs: mustprogress nounwind uwtable
define linkonce_odr noundef i32 @_ZNK8facebook5velox6common6Filter4kindEv(ptr noundef nonnull align 8 dereferenceable(16) %this) #3 comdat align 2 {
entry:
  %this.addr = alloca ptr, align 8
  store ptr %this, ptr %this.addr, align 8
  %this1 = load ptr, ptr %this.addr, align 8
  %kind_ = getelementptr inbounds %"class.facebook::velox::common::Filter", ptr %this1, i32 0, i32 3
  %0 = load i32, ptr %kind_, align 4
  ret i32 %0
}

; Function Attrs: mustprogress uwtable
define linkonce_odr noundef zeroext i1 @_ZNK8facebook5velox6common6Filter17testingBaseEqualsERKS2_(ptr noundef nonnull align 8 dereferenceable(16) %this, ptr noundef nonnull align 8 dereferenceable(16) %other) #0 comdat align 2 {
entry:
  %this.addr = alloca ptr, align 8
  %other.addr = alloca ptr, align 8
  store ptr %this, ptr %this.addr, align 8
  store ptr %other, ptr %other.addr, align 8
  %this1 = load ptr, ptr %this.addr, align 8
  %deterministic_ = getelementptr inbounds %"class.facebook::velox::common::Filter", ptr %this1, i32 0, i32 2
  %0 = load i8, ptr %deterministic_, align 1
  %tobool = trunc i8 %0 to i1
  %conv = zext i1 %tobool to i32
  %1 = load ptr, ptr %other.addr, align 8
  %vtable = load ptr, ptr %1, align 8
  %vfn = getelementptr inbounds ptr, ptr %vtable, i64 4
  %2 = load ptr, ptr %vfn, align 8
  %call = call noundef zeroext i1 %2(ptr noundef nonnull align 8 dereferenceable(16) %1)
  %conv2 = zext i1 %call to i32
  %cmp = icmp eq i32 %conv, %conv2
  br i1 %cmp, label %land.lhs.true, label %land.end

land.lhs.true:                                    ; preds = %entry
  %nullAllowed_ = getelementptr inbounds %"class.facebook::velox::common::Filter", ptr %this1, i32 0, i32 1
  %3 = load i8, ptr %nullAllowed_, align 8
  %tobool3 = trunc i8 %3 to i1
  %conv4 = zext i1 %tobool3 to i32
  %4 = load ptr, ptr %other.addr, align 8
  %nullAllowed_5 = getelementptr inbounds %"class.facebook::velox::common::Filter", ptr %4, i32 0, i32 1
  %5 = load i8, ptr %nullAllowed_5, align 8
  %tobool6 = trunc i8 %5 to i1
  %conv7 = zext i1 %tobool6 to i32
  %cmp8 = icmp eq i32 %conv4, %conv7
  br i1 %cmp8, label %land.rhs, label %land.end

land.rhs:                                         ; preds = %land.lhs.true
  %kind_ = getelementptr inbounds %"class.facebook::velox::common::Filter", ptr %this1, i32 0, i32 3
  %6 = load i32, ptr %kind_, align 4
  %7 = load ptr, ptr %other.addr, align 8
  %call9 = call noundef i32 @_ZNK8facebook5velox6common6Filter4kindEv(ptr noundef nonnull align 8 dereferenceable(16) %7)
  %cmp10 = icmp eq i32 %6, %call9
  br label %land.end

land.end:                                         ; preds = %land.rhs, %land.lhs.true, %entry
  %8 = phi i1 [ false, %land.lhs.true ], [ false, %entry ], [ %cmp10, %land.rhs ]
  ret i1 %8
}

; Function Attrs: mustprogress uwtable
define noundef zeroext i1 @_ZNK8facebook5velox6common11BigintRange13testingEqualsERKNS1_6FilterE(ptr noundef nonnull align 8 dereferenceable(48) %this, ptr noundef nonnull align 8 dereferenceable(16) %other) unnamed_addr #0 align 2 {
entry:
  %this.addr = alloca ptr, align 8
  %other.addr = alloca ptr, align 8
  %otherBigintRange = alloca ptr, align 8
  store ptr %this, ptr %this.addr, align 8
  store ptr %other, ptr %other.addr, align 8
  %this1 = load ptr, ptr %this.addr, align 8
  %0 = load ptr, ptr %other.addr, align 8
  %1 = icmp eq ptr %0, null
  br i1 %1, label %dynamic_cast.null, label %dynamic_cast.notnull

dynamic_cast.notnull:                             ; preds = %entry
  %2 = call ptr @__dynamic_cast(ptr %0, ptr @_ZTIN8facebook5velox6common6FilterE, ptr @_ZTIN8facebook5velox6common11BigintRangeE, i64 0) #13
  br label %dynamic_cast.end

dynamic_cast.null:                                ; preds = %entry
  br label %dynamic_cast.end

dynamic_cast.end:                                 ; preds = %dynamic_cast.null, %dynamic_cast.notnull
  %3 = phi ptr [ %2, %dynamic_cast.notnull ], [ null, %dynamic_cast.null ]
  store ptr %3, ptr %otherBigintRange, align 8
  %4 = load ptr, ptr %otherBigintRange, align 8
  %cmp = icmp ne ptr %4, null
  br i1 %cmp, label %land.lhs.true, label %land.end

land.lhs.true:                                    ; preds = %dynamic_cast.end
  %5 = load ptr, ptr %other.addr, align 8
  %call = call noundef zeroext i1 @_ZNK8facebook5velox6common6Filter17testingBaseEqualsERKS2_(ptr noundef nonnull align 8 dereferenceable(16) %this1, ptr noundef nonnull align 8 dereferenceable(16) %5)
  br i1 %call, label %land.lhs.true2, label %land.end

land.lhs.true2:                                   ; preds = %land.lhs.true
  %lower_ = getelementptr inbounds %"class.facebook::velox::common::BigintRange", ptr %this1, i32 0, i32 1
  %6 = load i64, ptr %lower_, align 8
  %7 = load ptr, ptr %otherBigintRange, align 8
  %lower_3 = getelementptr inbounds %"class.facebook::velox::common::BigintRange", ptr %7, i32 0, i32 1
  %8 = load i64, ptr %lower_3, align 8
  %cmp4 = icmp eq i64 %6, %8
  br i1 %cmp4, label %land.rhs, label %land.end

land.rhs:                                         ; preds = %land.lhs.true2
  %upper_ = getelementptr inbounds %"class.facebook::velox::common::BigintRange", ptr %this1, i32 0, i32 2
  %9 = load i64, ptr %upper_, align 8
  %10 = load ptr, ptr %otherBigintRange, align 8
  %upper_5 = getelementptr inbounds %"class.facebook::velox::common::BigintRange", ptr %10, i32 0, i32 2
  %11 = load i64, ptr %upper_5, align 8
  %cmp6 = icmp eq i64 %9, %11
  br label %land.end

land.end:                                         ; preds = %land.rhs, %land.lhs.true2, %land.lhs.true, %dynamic_cast.end
  %12 = phi i1 [ false, %land.lhs.true2 ], [ false, %land.lhs.true ], [ false, %dynamic_cast.end ], [ %cmp6, %land.rhs ]
  ret i1 %12
}